; Function Attrs: mustprogress uwtable
define hidden void @_ZN17hint_macro_solver27register_decls_as_forbiddenEP10quantifier(ptr noundef nonnull align 8 dereferenceable(328) %this, ptr noundef %q) local_unnamed_addr #3 align 2 {
entry:
  %tmp.i = alloca ptr, align 8
  %m_q2info.i = getelementptr inbounds i8, ptr %this, i64 16
  %0 = load ptr, ptr %m_q2info.i, align 8
  %vtable.i = load ptr, ptr %0, align 8
  %vfn.i = getelementptr inbounds i8, ptr %vtable.i, i64 16
  %1 = load ptr, ptr %vfn.i, align 8
  %call.i = tail call noundef ptr %1(ptr noundef nonnull align 8 dereferenceable(8) %0, ptr noundef %q)
  %m_ng_decls.i = getelementptr inbounds i8, ptr %call.i, i64 40
  %2 = load ptr, ptr %m_ng_decls.i, align 8
  %m_capacity.i = getelementptr inbounds i8, ptr %call.i, i64 48
  %3 = load i32, ptr %m_capacity.i, align 8
  %idx.ext.i = zext i32 %3 to i64
  %add.ptr.i = getelementptr inbounds %class.obj_hash_entry, ptr %2, i64 %idx.ext.i
  %cmp.not2.i.i.i = icmp eq i32 %3, 0
  br i1 %cmp.not2.i.i.i, label %_ZNK14core_hashtableI14obj_hash_entryI9func_declE12obj_ptr_hashIS1_E6ptr_eqIS1_EE5beginEv.exit, label %land.rhs.i.i.i

land.rhs.i.i.i:                                   ; preds = %entry, %while.body.i.i.i
  %retval.sroa.0.0.i = phi ptr [ %incdec.ptr.i.i.i, %while.body.i.i.i ], [ %2, %entry ]
  %4 = load ptr, ptr %retval.sroa.0.0.i, align 8
  %switch.i.i.i = icmp ult ptr %4, inttoptr (i64 2 to ptr)
  br i1 %switch.i.i.i, label %while.body.i.i.i, label %_ZNK14core_hashtableI14obj_hash_entryI9func_declE12obj_ptr_hashIS1_E6ptr_eqIS1_EE5beginEv.exit

while.body.i.i.i:                                 ; preds = %land.rhs.i.i.i
  %incdec.ptr.i.i.i = getelementptr inbounds i8, ptr %retval.sroa.0.0.i, i64 8
  %cmp.not.i.i.i = icmp eq ptr %incdec.ptr.i.i.i, %add.ptr.i
  br i1 %cmp.not.i.i.i, label %for.end, label %land.rhs.i.i.i, !llvm.loop !21

_ZNK14core_hashtableI14obj_hash_entryI9func_declE12obj_ptr_hashIS1_E6ptr_eqIS1_EE5beginEv.exit: ; preds = %land.rhs.i.i.i, %entry
  %retval.sroa.0.1.i = phi ptr [ %2, %entry ], [ %retval.sroa.0.0.i, %land.rhs.i.i.i ]
  %cmp.i.not9 = icmp eq ptr %retval.sroa.0.1.i, %add.ptr.i
  br i1 %cmp.i.not9, label %for.end, label %for.body.lr.ph

for.body.lr.ph:                                   ; preds = %_ZNK14core_hashtableI14obj_hash_entryI9func_declE12obj_ptr_hashIS1_E6ptr_eqIS1_EE5beginEv.exit
  %m_forbidden = getelementptr inbounds i8, ptr %this, i64 120
  br label %for.body

for.body:                                         ; preds = %for.body.lr.ph, %_ZN14core_hashtableI14obj_hash_entryI9func_declE12obj_ptr_hashIS1_E6ptr_eqIS1_EE8iteratorppEv.exit
  %__begin1.sroa.0.010 = phi ptr [ %retval.sroa.0.1.i, %for.body.lr.ph ], [ %__begin1.sroa.0.1, %_ZN14core_hashtableI14obj_hash_entryI9func_declE12obj_ptr_hashIS1_E6ptr_eqIS1_EE8iteratorppEv.exit ]
  %5 = load ptr, ptr %__begin1.sroa.0.010, align 8
  call void @llvm.lifetime.start.p0(i64 8, ptr nonnull %tmp.i)
  store ptr %5, ptr %tmp.i, align 8
  call void @_ZN14core_hashtableI14obj_hash_entryI9func_declE12obj_ptr_hashIS1_E6ptr_eqIS1_EE6insertEOPS1_(ptr noundef nonnull align 8 dereferenceable(20) %m_forbidden, ptr noundef nonnull align 8 dereferenceable(8) %tmp.i)
  call void @llvm.lifetime.end.p0(i64 8, ptr nonnull %tmp.i)
  %incdec.ptr.i = getelementptr inbounds i8, ptr %__begin1.sroa.0.010, i64 8
  %cmp.not2.i.i = icmp eq ptr %incdec.ptr.i, %add.ptr.i
  br i1 %cmp.not2.i.i, label %for.end, label %land.rhs.i.i

land.rhs.i.i:                                     ; preds = %for.body, %while.body.i.i
  %__begin1.sroa.0.1 = phi ptr [ %incdec.ptr.i.i, %while.body.i.i ], [ %incdec.ptr.i, %for.body ]
  %6 = load ptr, ptr %__begin1.sroa.0.1, align 8
  %switch.i.i = icmp ult ptr %6, inttoptr (i64 2 to ptr)
  br i1 %switch.i.i, label %while.body.i.i, label %_ZN14core_hashtableI14obj_hash_entryI9func_declE12obj_ptr_hashIS1_E6ptr_eqIS1_EE8iteratorppEv.exit

while.body.i.i:                                   ; preds = %land.rhs.i.i
  %incdec.ptr.i.i = getelementptr inbounds i8, ptr %__begin1.sroa.0.1, i64 8
  %cmp.not.i.i = icmp eq ptr %incdec.ptr.i.i, %add.ptr.i
  br i1 %cmp.not.i.i, label %for.end, label %land.rhs.i.i, !llvm.loop !21

_ZN14core_hashtableI14obj_hash_entryI9func_declE12obj_ptr_hashIS1_E6ptr_eqIS1_EE8iteratorppEv.exit: ; preds = %land.rhs.i.i
  %cmp.i.not = icmp eq ptr %__begin1.sroa.0.1, %add.ptr.i
  br i1 %cmp.i.not, label %for.end, label %for.body

for.end:                                          ; preds = %while.body.i.i.i, %for.body, %_ZN14core_hashtableI14obj_hash_entryI9func_declE12obj_ptr_hashIS1_E6ptr_eqIS1_EE8iteratorppEv.exit, %while.body.i.i, %_ZNK14core_hashtableI14obj_hash_entryI9func_declE12obj_ptr_hashIS1_E6ptr_eqIS1_EE5beginEv.exit
  ret void
}